target datalayout = "e-m:e-p270:32:32-p271:32:32-p272:64:64-i64:64-i128:128-f80:128-n8:16:32:64-S128"
target triple = "x86_64-pc-linux-gnu"

%"class.std::_Function_base" = type { %"union.std::_Any_data", ptr }
%"union.std::_Any_data" = type { %"union.std::_Nocopy_types" }
%"union.std::_Nocopy_types" = type { { i64, i64 } }
%"struct.std::pair.166" = type { i32, double }
%class.CSC_RowIterator = type { i32, i32, double, i8, %"class.std::function.197" }
%"class.std::function.197" = type { %"class.std::_Function_base", ptr }

; Function Attrs: mustprogress nounwind uwtable
define linkonce_odr void @_ZNSt4pairIidEC2IidTnNSt9enable_ifIXaaclsr5_PCCPE22_MoveConstructiblePairIT_T0_EEclsr5_PCCPE30_ImplicitlyMoveConvertiblePairIS3_S4_EEEbE4typeELb1EEEOS3_OS4_(ptr noundef nonnull align 8 dereferenceable(16) %0, ptr noundef nonnull align 4 dereferenceable(4) %1, ptr noundef nonnull align 8 dereferenceable(8) %2) unnamed_addr #5 comdat align 2 {
  %4 = alloca ptr, align 8
  %5 = alloca ptr, align 8
  %6 = alloca ptr, align 8
  store ptr %0, ptr %4, align 8, !tbaa !691
  store ptr %1, ptr %5, align 8, !tbaa !41
  store ptr %2, ptr %6, align 8, !tbaa !264
  %7 = load ptr, ptr %4, align 8
  %8 = getelementptr inbounds nuw %"struct.std::pair.166", ptr %7, i32 0, i32 0
  %9 = load ptr, ptr %5, align 8, !tbaa !41
  %10 = load i32, ptr %9, align 4, !tbaa !28
  store i32 %10, ptr %8, align 8, !tbaa !693
  %11 = getelementptr inbounds nuw %"struct.std::pair.166", ptr %7, i32 0, i32 1
  %12 = load ptr, ptr %6, align 8, !tbaa !264
  %13 = load double, ptr %12, align 8, !tbaa !320
  store double %13, ptr %11, align 8, !tbaa !695
  ret void
}

; Function Attrs: mustprogress nounwind uwtable
define linkonce_odr noundef zeroext i1 @_ZNKSt14_Function_base8_M_emptyEv(ptr noundef nonnull align 8 dereferenceable(24) %0) #5 comdat align 2 {
  %2 = alloca ptr, align 8
  store ptr %0, ptr %2, align 8, !tbaa !421
  %3 = load ptr, ptr %2, align 8
  %4 = getelementptr inbounds nuw %"class.std::_Function_base", ptr %3, i32 0, i32 1
  %5 = load ptr, ptr %4, align 8, !tbaa !423
  %6 = icmp ne ptr %5, null
  %7 = xor i1 %6, true
  ret i1 %7
}

; Function Attrs: mustprogress uwtable
define linkonce_odr { i32, double } @_ZSt9make_pairIidESt4pairINSt25__strip_reference_wrapperINSt5decayIT_E4typeEE6__typeENS1_INS2_IT0_E4typeEE6__typeEEOS3_OS8_(ptr noundef nonnull align 4 dereferenceable(4) %0, ptr noundef nonnull align 8 dereferenceable(8) %1) #4 comdat {
  %3 = alloca %"struct.std::pair.166", align 8
  %4 = alloca ptr, align 8
  %5 = alloca ptr, align 8
  store ptr %0, ptr %4, align 8, !tbaa !41
  store ptr %1, ptr %5, align 8, !tbaa !264
  %6 = load ptr, ptr %4, align 8, !tbaa !41
  %7 = load ptr, ptr %5, align 8, !tbaa !264
  call void @_ZNSt4pairIidEC2IidTnNSt9enable_ifIXaaclsr5_PCCPE22_MoveConstructiblePairIT_T0_EEclsr5_PCCPE30_ImplicitlyMoveConvertiblePairIS3_S4_EEEbE4typeELb1EEEOS3_OS4_(ptr noundef nonnull align 8 dereferenceable(16) %3, ptr noundef nonnull align 4 dereferenceable(4) %6, ptr noundef nonnull align 8 dereferenceable(8) %7)
  %8 = load { i32, double }, ptr %3, align 8
  ret { i32, double } %8
}

; Function Attrs: mustprogress uwtable
define linkonce_odr { i32, double } @_ZNKSt8functionIFSt4pairIidEiEEclEi(ptr noundef nonnull align 8 dereferenceable(32) %0, i32 noundef %1) #4 comdat align 2 {
  %3 = alloca %"struct.std::pair.166", align 8
  %4 = alloca ptr, align 8
  %5 = alloca i32, align 4
  store ptr %0, ptr %4, align 8, !tbaa !2128
  store i32 %1, ptr %5, align 4, !tbaa !28
  %6 = load ptr, ptr %4, align 8
  %7 = call noundef zeroext i1 @_ZNKSt14_Function_base8_M_emptyEv(ptr noundef nonnull align 8 dereferenceable(24) %6)
  br i1 %7, label %8, label %9

8:                                                ; preds = %2
  call void @_ZSt25__throw_bad_function_callv() #31
  unreachable

9:                                                ; preds = %2
  %10 = getelementptr inbounds nuw %"class.std::function.197", ptr %6, i32 0, i32 1
  %11 = load ptr, ptr %10, align 8, !tbaa !2130
  %12 = getelementptr inbounds nuw %"class.std::_Function_base", ptr %6, i32 0, i32 0
  %13 = call { i32, double } %11(ptr noundef nonnull align 8 dereferenceable(16) %12, ptr noundef nonnull align 4 dereferenceable(4) %5)
  %14 = getelementptr inbounds nuw { i32, double }, ptr %3, i32 0, i32 0
  %15 = extractvalue { i32, double } %13, 0
  store i32 %15, ptr %14, align 8
  %16 = getelementptr inbounds nuw { i32, double }, ptr %3, i32 0, i32 1
  %17 = extractvalue { i32, double } %13, 1
  store double %17, ptr %16, align 8
  %18 = load { i32, double }, ptr %3, align 8
  ret { i32, double } %18
}

; Function Attrs: mustprogress uwtable
define { i32, double } @_ZN15CSC_RowIterator11NextNonZeroEv(ptr noundef nonnull align 8 dereferenceable(56) %0) #4 align 2 {
  %2 = alloca %"struct.std::pair.166", align 8
  %3 = alloca ptr, align 8
  %4 = alloca i32, align 4
  %5 = alloca double, align 8
  store ptr %0, ptr %3, align 8, !tbaa !871
  %6 = load ptr, ptr %3, align 8
  %7 = getelementptr inbounds nuw %class.CSC_RowIterator, ptr %6, i32 0, i32 3
  %8 = load i8, ptr %7, align 8, !tbaa !876, !range !326, !noundef !327
  %9 = trunc i8 %8 to i1
  br i1 %9, label %28, label %10

10:                                               ; preds = %1
  %11 = getelementptr inbounds nuw %class.CSC_RowIterator, ptr %6, i32 0, i32 4
  %12 = getelementptr inbounds nuw %class.CSC_RowIterator, ptr %6, i32 0, i32 0
  %13 = load i32, ptr %12, align 8, !tbaa !877
  %14 = call { i32, double } @_ZNKSt8functionIFSt4pairIidEiEEclEi(ptr noundef nonnull align 8 dereferenceable(32) %11, i32 noundef %13)
  %15 = getelementptr inbounds nuw { i32, double }, ptr %2, i32 0, i32 0
  %16 = extractvalue { i32, double } %14, 0
  store i32 %16, ptr %15, align 8
  %17 = getelementptr inbounds nuw { i32, double }, ptr %2, i32 0, i32 1
  %18 = extractvalue { i32, double } %14, 1
  store double %18, ptr %17, align 8
  %19 = getelementptr inbounds nuw %class.CSC_RowIterator, ptr %6, i32 0, i32 0
  %20 = load i32, ptr %19, align 8, !tbaa !877
  %21 = add nsw i32 %20, 1
  store i32 %21, ptr %19, align 8, !tbaa !877
  %22 = getelementptr inbounds nuw %"struct.std::pair.166", ptr %2, i32 0, i32 0
  %23 = load i32, ptr %22, align 8, !tbaa !693
  %24 = icmp slt i32 %23, 0
  br i1 %24, label %25, label %27

25:                                               ; preds = %10
  %26 = getelementptr inbounds nuw %class.CSC_RowIterator, ptr %6, i32 0, i32 3
  store i8 1, ptr %26, align 8, !tbaa !876
  br label %27

27:                                               ; preds = %25, %10
  br label %34

28:                                               ; preds = %1
  call void @llvm.lifetime.start.p0(i64 4, ptr %4) #3
  store i32 -1, ptr %4, align 4, !tbaa !28
  call void @llvm.lifetime.start.p0(i64 8, ptr %5) #3
  store double 0.000000e+00, ptr %5, align 8, !tbaa !320
  %29 = call { i32, double } @_ZSt9make_pairIidESt4pairINSt25__strip_reference_wrapperINSt5decayIT_E4typeEE6__typeENS1_INS2_IT0_E4typeEE6__typeEEOS3_OS8_(ptr noundef nonnull align 4 dereferenceable(4) %4, ptr noundef nonnull align 8 dereferenceable(8) %5)
  %30 = getelementptr inbounds nuw { i32, double }, ptr %2, i32 0, i32 0
  %31 = extractvalue { i32, double } %29, 0
  store i32 %31, ptr %30, align 8
  %32 = getelementptr inbounds nuw { i32, double }, ptr %2, i32 0, i32 1
  %33 = extractvalue { i32, double } %29, 1
  store double %33, ptr %32, align 8
  call void @llvm.lifetime.end.p0(i64 8, ptr %5) #3
  call void @llvm.lifetime.end.p0(i64 4, ptr %4) #3
  br label %34

34:                                               ; preds = %28, %27
  %35 = load { i32, double }, ptr %2, align 8
  ret { i32, double } %35
}