; Function Attrs: mustprogress uwtable
define { i32, double } @_ZN15CSC_RowIterator11NextNonZeroEv(ptr noundef nonnull align 8 dereferenceable(56) %0) local_unnamed_addr #5 align 2 {
  %2 = alloca i32, align 4
  %3 = getelementptr inbounds nuw i8, ptr %0, i64 16
  %4 = load i8, ptr %3, align 8, !tbaa !614, !range !259, !noundef !260
  %5 = trunc nuw i8 %4 to i1
  br i1 %5, label %20, label %6

6:                                                ; preds = %1
  %7 = load i32, ptr %0, align 8, !tbaa !615
  call void @llvm.lifetime.start.p0(i64 4, ptr nonnull %2)
  store i32 %7, ptr %2, align 4, !tbaa !52
  %8 = getelementptr inbounds nuw i8, ptr %0, i64 40
  %9 = load ptr, ptr %8, align 8, !tbaa !200
  %.not.i.i = icmp eq ptr %9, null
  br i1 %.not.i.i, label %10, label %_ZNKSt8functionIFSt4pairIidEiEEclEi.exit

10:                                               ; preds = %6
  tail call void @_ZSt25__throw_bad_function_callv() #42
  unreachable

_ZNKSt8functionIFSt4pairIidEiEEclEi.exit:         ; preds = %6
  %11 = getelementptr inbounds nuw i8, ptr %0, i64 24
  %12 = getelementptr inbounds nuw i8, ptr %0, i64 48
  %13 = load ptr, ptr %12, align 8, !tbaa !616
  %14 = call { i32, double } %13(ptr noundef nonnull align 8 dereferenceable(32) %11, ptr noundef nonnull align 4 dereferenceable(4) %2)
  call void @llvm.lifetime.end.p0(i64 4, ptr nonnull %2)
  %15 = extractvalue { i32, double } %14, 0
  %16 = load i32, ptr %0, align 8, !tbaa !615
  %17 = add nsw i32 %16, 1
  store i32 %17, ptr %0, align 8, !tbaa !615
  %18 = icmp slt i32 %15, 0
  br i1 %18, label %19, label %20

19:                                               ; preds = %_ZNKSt8functionIFSt4pairIidEiEEclEi.exit
  store i8 1, ptr %3, align 8, !tbaa !614
  br label %20

20:                                               ; preds = %1, %_ZNKSt8functionIFSt4pairIidEiEEclEi.exit, %19
  %.sroa.0.0 = phi i32 [ %15, %19 ], [ %15, %_ZNKSt8functionIFSt4pairIidEiEEclEi.exit ], [ -1, %1 ]
  %.pn = phi { i32, double } [ %14, %19 ], [ %14, %_ZNKSt8functionIFSt4pairIidEiEEclEi.exit ], [ { i32 -1, double 0.000000e+00 }, %1 ]
  %.sroa.4.0 = extractvalue { i32, double } %.pn, 1
  %.fca.0.insert = insertvalue { i32, double } poison, i32 %.sroa.0.0, 0
  %.fca.1.insert = insertvalue { i32, double } %.fca.0.insert, double %.sroa.4.0, 1
  ret { i32, double } %.fca.1.insert
}